(lp1
V3MQY1YVHS3UMA4RIVD2ZE7R7P5FB2D
p2
aV3X878VYTIESJ9M046R5QTOZ0FJTF7F
p3
aV3UUSLRKAULDMB2M8FLA05OWF36DD72
p4
aV3ZUE82NE0ABN905NGWXW7OVVQ3ZF82
p5
aV3WGZLY9VCHWQBGRRPQ26JOSAEQJD8P
p6
aV3L1EFR8WWTFNN5OXLO3A7KQ6A9HF9R
p7
aV3P7RGTLO6ENC8AQGE587JSTVONGKAD
p8
aV36FQTHX3Z31BVMN1ZDG4XHWZVJFB3O
p9
aV3INZSNUD800QPLA1UI8KJKNLYW1D9E
p10
aV3S1L4CQSFXF1SOY2DUHA3F1QGRZFA6
p11
aV3JVP4ZJHDP2P122AM0Q2H625NXFI09
p12
aV3IH9TRB0FB9P8RNSIJU2VBLFSPLI1C
p13
aV3S8APUMBJXT6BY3UJ8H6YQLWY9KFB1
p14
aV3SCKNODZ0XQVXEDL4FO31T89HAFN7U
p15
aV3V7ICJJAZAQWDI65ZRLN7MO59JBB49
p16
aV3PN6H8C9R404U4K6MOMKFFY54EJDAT
p17
aV3PUV2Q8SV4E9DEPYS2MGAQIBMW4DBO
p18
aV341YLJU21I9WXC5O1NUG0UVKKVZI2T
p19
aV3UYRNV2KIT9ZXSI4EKG9FT44SULN8H
p20
aV3G5RUKN2ECDZBX1EJCMNFPZFC03N96
p21
aV3ZXV7Q5FJBYPL3V0X8D19AREGUKFC8
p22
aV3PEG1BH7AE1HRKV8KJ83E3D1651KB8
p23
aV3OQQD2WO8IGLIU175N8LJ40CQ9ZI34
p24
aV3DIIW4IV8P560QKB51D4T9SI49VI4P
p25
aV3NZ1E5QA6ZBE91A5DW4XCEUJ9F6B5E
p26
aV3OID399FXGHZQV1EX48CTG9W1UWFD8
p27
aV3909MD9T2ZR4I1FETZJWZYRH16XFE1
p28
aV3FI30CQHVKTAS5AJIFE24K8J5AHB6U
p29
aV35A1YQPVFEQOW9OBJ6WEY1YW45QI5U
p30
aV3XT3KXP24Z8KFDOPOP6JQ7CW001I6A
p31
a.