(lp1
V30P8I9JKOIVTIF8BIDYL0055W5KV5F
p2
aV3O71U79SRBZBYUCDGHA26FWKJWGMSR
p3
aV3M7OI89LVYYT2A2PWFDL2EVG7TF6C7
p4
aV3ZC62PVYDHKUONXGOYIYG4TA5F2XXU
p5
aV3JTPR5MTZSMF24EZJ9KEYRUOG7DK5I
p6
aV3YOAVL4CA0RSVG9L554EGECNKKW4ZK
p7
aV3S8A4GJRD3DP1J8PNW8QS6J5S0VV6V
p8
aV3HUR21WDDUZJOSNQTU40ZI0J7LWXY0
p9
aV37SOB9Z0SS7N8V9DQQ8MYU9JRBR3LE
p10
aV3KI0JD2ZU1SNQT7T5Y5AMS326IP76G
p11
aV33KMQD9OFJO6UTLYO8A2S63Y1T977F
p12
aV344M16OZKIPG6TSVRN5XUDH5NVHENI
p13
aV3RZS0FBRWKK1CGKUBBCU8EMX2Y6CPK
p14
aV3WYZV0QBFJNNBKUFJ2QGR72IMCEBXZ
p15
aV37MQ8Z1JQE6INCKT55J79S6NUCUY2P
p16
aV356TQKY9XF7AU7QHYD2866ZTCDF782
p17
aV3XDSWAMB222MCSL9BORJ8JC77USCQB
p18
aV34KYK9TV2RIFF38GPSKTSZLQ7XCSB8
p19
aV3BAWBGQGYL985JMU66DIYKJ1NBFV7U
p20
aV3YLTXLH3DFGSTOVAX3QVJ5JDFQAHPX
p21
aV3BCRDCM0OD4BL8EDOSUJQX8OC2OK6Y
p22
aV3B9J25CZ25NYP80M3SGO3JR8PICSCF
p23
aV3K2CEDRACBBCDUPS5HFSGKS6LFUMTG
p24
aV3ZFRE2BDQ9OJTIXVPG6JDP9LDF0XZR
p25
aV3VZYA8PITO8DPE7VFGAWF7FF29850Y
p26
aV3EGKVCRQFW2CBPKPOYCIAL9ROI8BY5
p27
aV39WSF6KUV2VYOES7S25A92HAD5MEOX
p28
aV3BS6ERDL93H37283WB8WMKDYSTR6D7
p29
aV3RBI0I35XED78UGC95XCS2BF0QUY30
p30
aV3G3AJKPCXL2SQQZG9J2V273LEQQY4L
p31
a.